target datalayout = "e-m:e-p270:32:32-p271:32:32-p272:64:64-i64:64-i128:128-f80:128-n8:16:32:64-S128"
target triple = "x86_64-pc-linux-gnu"

%struct.loopargs_st = type { ptr, ptr, ptr, ptr, ptr, ptr, ptr, [16 x i8], i64, i64, i64, [7 x ptr], [7 x ptr], [7 x ptr], [7 x ptr], [2 x ptr], [2 x ptr], [22 x ptr], [22 x ptr], [24 x ptr], [2 x ptr], [2 x ptr], [1 x ptr], [1 x ptr], [1 x ptr], ptr, ptr, [24 x i64], [5 x ptr], ptr, ptr, ptr, ptr, [111 x ptr], [111 x ptr], [111 x ptr], [111 x i64], [111 x i64], [111 x ptr], [111 x ptr], [111 x ptr], [111 x ptr], [111 x ptr], [111 x ptr], [111 x i64], [111 x i64], [111 x ptr] }

@testmode = internal global i32 0, align 4
@lengths = internal global ptr @lengths_list, align 8
@testnum = internal global i32 0, align 4
@run = internal global i32 0, align 4

; Function Attrs: nounwind uwtable
define internal i32 @GHASH_loop(ptr noundef %0) #0 {
  %2 = alloca i32, align 4
  %3 = alloca ptr, align 8
  %4 = alloca ptr, align 8
  %5 = alloca ptr, align 8
  %6 = alloca ptr, align 8
  %7 = alloca i32, align 4
  %8 = alloca i32, align 4
  store ptr %0, ptr %3, align 8, !tbaa !115
  call void @llvm.lifetime.start.p0(i64 8, ptr %4) #11
  %9 = load ptr, ptr %3, align 8, !tbaa !115
  %10 = load ptr, ptr %9, align 8, !tbaa !37
  store ptr %10, ptr %4, align 8, !tbaa !37
  call void @llvm.lifetime.start.p0(i64 8, ptr %5) #11
  %11 = load ptr, ptr %4, align 8, !tbaa !37
  %12 = getelementptr inbounds nuw %struct.loopargs_st, ptr %11, i32 0, i32 2
  %13 = load ptr, ptr %12, align 8, !tbaa !92
  store ptr %13, ptr %5, align 8, !tbaa !39
  call void @llvm.lifetime.start.p0(i64 8, ptr %6) #11
  %14 = load ptr, ptr %4, align 8, !tbaa !37
  %15 = getelementptr inbounds nuw %struct.loopargs_st, ptr %14, i32 0, i32 32
  %16 = load ptr, ptr %15, align 8, !tbaa !136
  store ptr %16, ptr %6, align 8, !tbaa !250
  call void @llvm.lifetime.start.p0(i64 4, ptr %7) #11
  store i32 0, ptr %7, align 4, !tbaa !4
  br label %17

17:                                               ; preds = %41, %1
  %18 = load volatile i32, ptr @run, align 4, !tbaa !4
  %19 = icmp ne i32 %18, 0
  br i1 %19, label %20, label %26

20:                                               ; preds = %17
  %21 = load i32, ptr %7, align 4, !tbaa !4
  %22 = load i32, ptr @testmode, align 4, !tbaa !4
  %23 = icmp ne i32 %22, 0
  %24 = select i1 %23, i32 1, i32 2147483647
  %25 = icmp slt i32 %21, %24
  br label %26

26:                                               ; preds = %20, %17
  %27 = phi i1 [ false, %17 ], [ %25, %20 ]
  br i1 %27, label %28, label %44

28:                                               ; preds = %26
  %29 = load ptr, ptr %6, align 8, !tbaa !250
  %30 = load ptr, ptr %5, align 8, !tbaa !39
  %31 = load ptr, ptr @lengths, align 8, !tbaa !66
  %32 = load i32, ptr @testnum, align 4, !tbaa !4
  %33 = zext i32 %32 to i64
  %34 = getelementptr inbounds nuw i32, ptr %31, i64 %33
  %35 = load i32, ptr %34, align 4, !tbaa !4
  %36 = sext i32 %35 to i64
  %37 = call i32 @EVP_MAC_update(ptr noundef %29, ptr noundef %30, i64 noundef %36)
  %38 = icmp ne i32 %37, 0
  br i1 %38, label %40, label %39

39:                                               ; preds = %28
  store i32 -1, ptr %2, align 4
  store i32 1, ptr %8, align 4
  br label %46

40:                                               ; preds = %28
  br label %41

41:                                               ; preds = %40
  %42 = load i32, ptr %7, align 4, !tbaa !4
  %43 = add nsw i32 %42, 1
  store i32 %43, ptr %7, align 4, !tbaa !4
  br label %17, !llvm.loop !251

44:                                               ; preds = %26
  %45 = load i32, ptr %7, align 4, !tbaa !4
  store i32 %45, ptr %2, align 4
  store i32 1, ptr %8, align 4
  br label %46

46:                                               ; preds = %44, %39
  call void @llvm.lifetime.end.p0(i64 4, ptr %7) #11
  call void @llvm.lifetime.end.p0(i64 8, ptr %6) #11
  call void @llvm.lifetime.end.p0(i64 8, ptr %5) #11
  call void @llvm.lifetime.end.p0(i64 8, ptr %4) #11
  %47 = load i32, ptr %2, align 4
  ret i32 %47
}