; Function Attrs: nounwind uwtable
define internal i32 @GHASH_loop(ptr noundef readonly captures(none) %0) #0 {
  %2 = load ptr, ptr %0, align 8, !tbaa !189
  %3 = getelementptr inbounds nuw i8, ptr %2, i64 16
  %4 = load ptr, ptr %3, align 8, !tbaa !53
  %5 = getelementptr inbounds nuw i8, ptr %2, i64 1224
  %6 = load ptr, ptr %5, align 8, !tbaa !98
  %7 = load volatile i32, ptr @run, align 4, !tbaa !13
  %.not10 = icmp eq i32 %7, 0
  br i1 %.not10, label %.critedge, label %.lr.ph

.lr.ph:                                           ; preds = %1, %18
  %.011 = phi i32 [ %19, %18 ], [ 0, %1 ]
  %.b = load i1, ptr @testmode, align 4
  %8 = select i1 %.b, i32 1, i32 2147483647
  %9 = icmp samesign ult i32 %.011, %8
  br i1 %9, label %10, label %.critedge

10:                                               ; preds = %.lr.ph
  %11 = load ptr, ptr @lengths, align 8, !tbaa !26
  %12 = load i32, ptr @testnum, align 4, !tbaa !13
  %13 = zext i32 %12 to i64
  %14 = getelementptr inbounds nuw i32, ptr %11, i64 %13
  %15 = load i32, ptr %14, align 4, !tbaa !13
  %16 = sext i32 %15 to i64
  %17 = tail call i32 @EVP_MAC_update(ptr noundef %6, ptr noundef %4, i64 noundef %16) #14
  %.not9 = icmp eq i32 %17, 0
  br i1 %.not9, label %.critedge, label %18

18:                                               ; preds = %10
  %19 = add nuw nsw i32 %.011, 1
  %20 = load volatile i32, ptr @run, align 4, !tbaa !13
  %.not = icmp eq i32 %20, 0
  br i1 %.not, label %.critedge, label %.lr.ph, !llvm.loop !200

.critedge:                                        ; preds = %10, %18, %.lr.ph, %1
  %.08 = phi i32 [ 0, %1 ], [ %.011, %.lr.ph ], [ %19, %18 ], [ -1, %10 ]
  ret i32 %.08
}